(dp0
S'auth_obj_id_1'
p1
I0
sS'forbid_all_1'
p2
I00
sS'forbid_derived_output_1'
p3
I00
sS'ka_1'
p4
I00
sS'decrypt_1'
p5
I01
sS'verify_1'
p6
I01
sS'tls_kdf_1'
p7
I0
sS'pcr_obj_id_1'
p8
I0
sS'desfire_change_key_1'
p9
I0
sS'req_sm_1'
p10
I00
sS'desfire_dump_1'
p11
I0
sS'pkl_v_minor'
p12
I0
sS'kd_1'
p13
I00
sS'desfire_kd_1'
p14
I0
sS'attest_1'
p15
I00
sS'usage_hmac_pepper_1'
p16
I0
sS'pbkdf_1'
p17
I0
sS'write_1'
p18
I00
sS'pcr_expected_value_1'
p19
V
p20
sS'gen_1'
p21
I00
sS'key_type_1'
p22
I3
sS'read_1'
p23
I01
sS'policy_count'
p24
I1
sS'sign_1'
p25
I01
sS'kdf_ext_random_1'
p26
I0
sS'desfire_auth_id_1'
p27
I0
sS'wrap_1'
p28
I00
sS'import_export_1'
p29
I00
sS'encrypt_1'
p30
I01
sS'policy_name'
p31
VNoMod
p32
sS'pkl_v_major'
p33
I1
sS'tls_pms_kd_1'
p34
I0
sS'delete_1'
p35
I00
sS'source_key_id_1'
p36
I0
sS'desfire_auth_1'
p37
I0
sS'hkdf_1'
p38
I1
sS'forbid_external_iv_1'
p39
I0
sS'derived_input_1'
p40
I0
sS'req_pcr_val_1'
p41
I00
s.